target datalayout = "e-m:e-p270:32:32-p271:32:32-p272:64:64-i64:64-i128:128-f80:128-n8:16:32:64-S128"
target triple = "x86_64-pc-linux-gnu"

@.str.1734 = private unnamed_addr constant [24 x i8] c"Border Gateway Protocol\00", align 1
@.str.1735 = private unnamed_addr constant [4 x i8] c"BGP\00", align 1
@.str.1736 = private unnamed_addr constant [4 x i8] c"bgp\00", align 1
@proto_bgp = internal global i32 0, align 4
@.str.1737 = private unnamed_addr constant [10 x i8] c"desegment\00", align 1
@.str.1738 = private unnamed_addr constant [55 x i8] c"Reassemble BGP messages spanning multiple TCP segments\00", align 1
@.str.1739 = private unnamed_addr constant [204 x i8] c"Whether the BGP dissector should reassemble messages spanning multiple TCP segments. To use this option, you must also enable \22Allow subdissectors to reassemble TCP streams\22 in the TCP protocol settings.\00", align 1
@bgp_desegment = internal global i8 1, align 1
@.str.1740 = private unnamed_addr constant [8 x i8] c"asn_len\00", align 1
@.str.1741 = private unnamed_addr constant [24 x i8] c"Length of the AS number\00", align 1
@.str.1742 = private unnamed_addr constant [146 x i8] c"BGP dissector detect the length of the AS number in AS_PATH attributes automatically or manually (NOTE: Automatic detection is not 100% accurate)\00", align 1
@bgp_asn_len = internal global i32 0, align 4
@bgp_handle = internal global ptr null, align 8
@.str.1743 = private unnamed_addr constant [8 x i8] c"bgp.pdu\00", align 1

; Function Attrs: null_pointer_is_valid sspstrong uwtable
define hidden void @proto_register_bgp() #0 {
  %1 = alloca ptr, align 8
  %2 = alloca ptr, align 8
  call void @llvm.lifetime.start.p0(i64 8, ptr %1) #6
  call void @llvm.lifetime.start.p0(i64 8, ptr %2) #6
  %3 = call i32 @proto_register_protocol(ptr noundef @.str.1734, ptr noundef @.str.1735, ptr noundef @.str.1736)
  store i32 %3, ptr @proto_bgp, align 4
  %4 = load i32, ptr @proto_bgp, align 4
  call void @proto_register_field_array(i32 noundef %4, ptr noundef @proto_register_bgp.hf, i32 noundef 860)
  call void @proto_register_subtree_array(ptr noundef @proto_register_bgp.ett, i32 noundef 91)
  %5 = load i32, ptr @proto_bgp, align 4
  %6 = call ptr @expert_register_protocol(i32 noundef %5)
  store ptr %6, ptr %2, align 8
  %7 = load ptr, ptr %2, align 8
  call void @expert_register_field_array(ptr noundef %7, ptr noundef @proto_register_bgp.ei, i32 noundef 31)
  %8 = load i32, ptr @proto_bgp, align 4
  %9 = call ptr @prefs_register_protocol(i32 noundef %8, ptr noundef null)
  store ptr %9, ptr %1, align 8
  %10 = load ptr, ptr %1, align 8
  call void @prefs_register_bool_preference(ptr noundef %10, ptr noundef @.str.1737, ptr noundef @.str.1738, ptr noundef @.str.1739, ptr noundef @bgp_desegment)
  %11 = load ptr, ptr %1, align 8
  call void @prefs_register_enum_preference(ptr noundef %11, ptr noundef @.str.1740, ptr noundef @.str.1741, ptr noundef @.str.1742, ptr noundef @bgp_asn_len, ptr noundef @proto_register_bgp.asn_len, i1 noundef zeroext false)
  %12 = load i32, ptr @proto_bgp, align 4
  %13 = call ptr @register_dissector(ptr noundef @.str.1736, ptr noundef @dissect_bgp, i32 noundef %12)
  store ptr %13, ptr @bgp_handle, align 8
  %14 = load i32, ptr @proto_bgp, align 4
  %15 = call ptr @register_dissector(ptr noundef @.str.1743, ptr noundef @dissect_bgp_pdu, i32 noundef %14)
  call void @llvm.lifetime.end.p0(i64 8, ptr %2) #6
  call void @llvm.lifetime.end.p0(i64 8, ptr %1) #6
  ret void
}