; Function Attrs: null_pointer_is_valid sspstrong uwtable
define hidden void @proto_register_bgp() local_unnamed_addr #0 {
  %1 = tail call i32 @proto_register_protocol(ptr noundef nonnull @.str.1734, ptr noundef nonnull @.str.1735, ptr noundef nonnull @.str.1736)
  store i32 %1, ptr @proto_bgp, align 4
  tail call void @proto_register_field_array(i32 noundef %1, ptr noundef nonnull @proto_register_bgp.hf, i32 noundef 860)
  tail call void @proto_register_subtree_array(ptr noundef nonnull @proto_register_bgp.ett, i32 noundef 91)
  %2 = load i32, ptr @proto_bgp, align 4
  %3 = tail call ptr @expert_register_protocol(i32 noundef %2)
  tail call void @expert_register_field_array(ptr noundef %3, ptr noundef nonnull @proto_register_bgp.ei, i32 noundef 31)
  %4 = load i32, ptr @proto_bgp, align 4
  %5 = tail call ptr @prefs_register_protocol(i32 noundef %4, ptr noundef null)
  tail call void @prefs_register_bool_preference(ptr noundef %5, ptr noundef nonnull @.str.1737, ptr noundef nonnull @.str.1738, ptr noundef nonnull @.str.1739, ptr noundef nonnull @bgp_desegment)
  tail call void @prefs_register_enum_preference(ptr noundef %5, ptr noundef nonnull @.str.1740, ptr noundef nonnull @.str.1741, ptr noundef nonnull @.str.1742, ptr noundef nonnull @bgp_asn_len, ptr noundef nonnull @proto_register_bgp.asn_len, i1 noundef zeroext false)
  %6 = load i32, ptr @proto_bgp, align 4
  %7 = tail call ptr @register_dissector(ptr noundef nonnull @.str.1736, ptr noundef nonnull @dissect_bgp, i32 noundef %6)
  store ptr %7, ptr @bgp_handle, align 8
  %8 = load i32, ptr @proto_bgp, align 4
  %9 = tail call ptr @register_dissector(ptr noundef nonnull @.str.1743, ptr noundef nonnull @dissect_bgp_pdu, i32 noundef %8)
  ret void
}